target datalayout = "e-m:e-p270:32:32-p271:32:32-p272:64:64-i64:64-i128:128-f80:128-n8:16:32:64-S128"
target triple = "x86_64-unknown-linux-gnu"

%"class.net::QuicSentPacketManager" = type { %"class.net::QuicSentPacketManagerInterface", %"class.net::QuicUnackedPacketMap", %class.linked_hash_map, i32, i8, ptr, ptr, ptr, ptr, ptr, i64, %"class.net::RttStats", %"class.std::unique_ptr", ptr, %"class.net::GeneralLossAlgorithm", i8, i64, i64, i64, i64, i64, i64, i64, i64, i8, i8, i8, i8, %"class.std::vector", %"class.std::vector", i64, i16, [6 x i8], %"class.net::PacingSender", i8, %"class.net::QuicSustainedBandwidthRecorder" }
%"class.net::QuicSentPacketManagerInterface" = type { ptr }
%"class.net::QuicUnackedPacketMap" = type { i64, i64, %"class.std::deque", i64, i64, i64 }
%"class.std::deque" = type { %"class.std::_Deque_base" }
%"class.std::_Deque_base" = type { %"struct.std::_Deque_base<net::TransmissionInfo, std::allocator<net::TransmissionInfo>>::_Deque_impl" }
%"struct.std::_Deque_base<net::TransmissionInfo, std::allocator<net::TransmissionInfo>>::_Deque_impl" = type { %"struct.std::_Deque_base<net::TransmissionInfo, std::allocator<net::TransmissionInfo>>::_Deque_impl_data" }
%"struct.std::_Deque_base<net::TransmissionInfo, std::allocator<net::TransmissionInfo>>::_Deque_impl_data" = type { ptr, i64, %"struct.std::_Deque_iterator", %"struct.std::_Deque_iterator" }
%"struct.std::_Deque_iterator" = type { ptr, ptr, ptr, ptr }
%class.linked_hash_map = type { %"class.std::unordered_map", %"class.std::__cxx11::list" }
%"class.std::unordered_map" = type { %"class.std::_Hashtable" }
%"class.std::_Hashtable" = type { ptr, i64, %"struct.std::__detail::_Hash_node_base", i64, %"struct.std::__detail::_Prime_rehash_policy", ptr }
%"struct.std::__detail::_Hash_node_base" = type { ptr }
%"struct.std::__detail::_Prime_rehash_policy" = type { float, i64 }
%"class.std::__cxx11::list" = type { %"class.std::__cxx11::_List_base" }
%"class.std::__cxx11::_List_base" = type { %"struct.std::__cxx11::_List_base<std::pair<unsigned long, net::TransmissionType>, std::allocator<std::pair<unsigned long, net::TransmissionType>>>::_List_impl" }
%"struct.std::__cxx11::_List_base<std::pair<unsigned long, net::TransmissionType>, std::allocator<std::pair<unsigned long, net::TransmissionType>>>::_List_impl" = type { %"struct.std::__detail::_List_node_header" }
%"struct.std::__detail::_List_node_header" = type { %"struct.std::__detail::_List_node_base", i64 }
%"struct.std::__detail::_List_node_base" = type { ptr, ptr }
%"class.net::RttStats" = type { %"class.net::QuicTime::Delta", %"class.net::QuicTime::Delta", %"class.net::QuicTime::Delta", %"class.net::QuicTime::Delta", %"class.net::QuicTime::Delta", i64, %"class.net::QuicTime::Delta", %"class.net::QuicTime", i32, %"class.net::WindowedFilter" }
%"class.net::QuicTime::Delta" = type { %"class.base::TimeDelta", i64 }
%"class.base::TimeDelta" = type { i64 }
%"class.net::QuicTime" = type { i64 }
%"class.net::WindowedFilter" = type { %"class.net::QuicTime::Delta", %"class.net::QuicTime::Delta", [3 x %"struct.net::WindowedFilter<net::QuicTime::Delta, net::MinFilter<net::QuicTime::Delta>, net::QuicTime, net::QuicTime::Delta>::Sample"] }
%"struct.net::WindowedFilter<net::QuicTime::Delta, net::MinFilter<net::QuicTime::Delta>, net::QuicTime, net::QuicTime::Delta>::Sample" = type { %"class.net::QuicTime::Delta", %"class.net::QuicTime" }
%"class.std::unique_ptr" = type { %"struct.std::__uniq_ptr_data" }
%"struct.std::__uniq_ptr_data" = type { %"class.std::__uniq_ptr_impl" }
%"class.std::__uniq_ptr_impl" = type { %"class.std::tuple" }
%"class.std::tuple" = type { %"struct.std::_Tuple_impl" }
%"struct.std::_Tuple_impl" = type { %"struct.std::_Head_base.9" }
%"struct.std::_Head_base.9" = type { ptr }
%"class.net::GeneralLossAlgorithm" = type { %"class.net::LossDetectionInterface", %"class.net::QuicTime", i64, i32, i32 }
%"class.net::LossDetectionInterface" = type { ptr }
%"class.std::vector" = type { %"struct.std::_Vector_base" }
%"struct.std::_Vector_base" = type { %"struct.std::_Vector_base<std::pair<unsigned long, unsigned short>, std::allocator<std::pair<unsigned long, unsigned short>>>::_Vector_impl" }
%"struct.std::_Vector_base<std::pair<unsigned long, unsigned short>, std::allocator<std::pair<unsigned long, unsigned short>>>::_Vector_impl" = type { %"struct.std::_Vector_base<std::pair<unsigned long, unsigned short>, std::allocator<std::pair<unsigned long, unsigned short>>>::_Vector_impl_data" }
%"struct.std::_Vector_base<std::pair<unsigned long, unsigned short>, std::allocator<std::pair<unsigned long, unsigned short>>>::_Vector_impl_data" = type { ptr, ptr, ptr }
%"class.net::PacingSender" = type <{ ptr, %"class.net::QuicBandwidth", i32, [4 x i8], %"class.net::QuicTime", %"class.net::QuicTime", i8, [7 x i8] }>
%"class.net::QuicBandwidth" = type { i64 }
%"class.net::QuicSustainedBandwidthRecorder" = type { i8, i8, i8, %"class.net::QuicBandwidth", %"class.net::QuicBandwidth", i64, %"class.net::QuicTime" }

; Function Attrs: mustprogress nounwind uwtable
define linkonce_odr dso_local noundef nonnull align 8 dereferenceable(8) ptr @_ZNSt10_Head_baseILm0EPN3net22SendAlgorithmInterfaceELb0EE7_M_headERKS3_(ptr noundef nonnull align 8 dereferenceable(8) %__b) #1 comdat align 2 {
entry:
  %__b.addr = alloca ptr, align 8
  store ptr %__b, ptr %__b.addr, align 8
  %0 = load ptr, ptr %__b.addr, align 8
  %_M_head_impl = getelementptr inbounds %"struct.std::_Head_base.9", ptr %0, i32 0, i32 0
  ret ptr %_M_head_impl
}

; Function Attrs: mustprogress nounwind uwtable
define linkonce_odr dso_local noundef nonnull align 8 dereferenceable(8) ptr @_ZNSt11_Tuple_implILm0EJPN3net22SendAlgorithmInterfaceESt14default_deleteIS1_EEE7_M_headERKS5_(ptr noundef nonnull align 8 dereferenceable(8) %__t) #1 comdat align 2 {
entry:
  %__t.addr = alloca ptr, align 8
  store ptr %__t, ptr %__t.addr, align 8
  %0 = load ptr, ptr %__t.addr, align 8
  %call = call noundef nonnull align 8 dereferenceable(8) ptr @_ZNSt10_Head_baseILm0EPN3net22SendAlgorithmInterfaceELb0EE7_M_headERKS3_(ptr noundef nonnull align 8 dereferenceable(8) %0) #11
  ret ptr %call
}

; Function Attrs: mustprogress nounwind uwtable
define linkonce_odr dso_local noundef nonnull align 8 dereferenceable(8) ptr @_ZSt12__get_helperILm0EPN3net22SendAlgorithmInterfaceEJSt14default_deleteIS1_EEERKT0_RKSt11_Tuple_implIXT_EJS5_DpT1_EE(ptr noundef nonnull align 8 dereferenceable(8) %__t) #1 comdat {
entry:
  %__t.addr = alloca ptr, align 8
  store ptr %__t, ptr %__t.addr, align 8
  %0 = load ptr, ptr %__t.addr, align 8
  %call = call noundef nonnull align 8 dereferenceable(8) ptr @_ZNSt11_Tuple_implILm0EJPN3net22SendAlgorithmInterfaceESt14default_deleteIS1_EEE7_M_headERKS5_(ptr noundef nonnull align 8 dereferenceable(8) %0) #11
  ret ptr %call
}

; Function Attrs: mustprogress nounwind uwtable
define linkonce_odr dso_local noundef nonnull align 8 dereferenceable(8) ptr @_ZSt3getILm0EJPN3net22SendAlgorithmInterfaceESt14default_deleteIS1_EEERKNSt13tuple_elementIXT_ESt5tupleIJDpT0_EEE4typeERKS9_(ptr noundef nonnull align 8 dereferenceable(8) %__t) #1 comdat {
entry:
  %__t.addr = alloca ptr, align 8
  store ptr %__t, ptr %__t.addr, align 8
  %0 = load ptr, ptr %__t.addr, align 8
  %call = call noundef nonnull align 8 dereferenceable(8) ptr @_ZSt12__get_helperILm0EPN3net22SendAlgorithmInterfaceEJSt14default_deleteIS1_EEERKT0_RKSt11_Tuple_implIXT_EJS5_DpT1_EE(ptr noundef nonnull align 8 dereferenceable(8) %0) #11
  ret ptr %call
}

; Function Attrs: mustprogress nounwind uwtable
define linkonce_odr dso_local noundef ptr @_ZNKSt15__uniq_ptr_implIN3net22SendAlgorithmInterfaceESt14default_deleteIS1_EE6_M_ptrEv(ptr noundef nonnull align 8 dereferenceable(8) %this) #1 comdat align 2 {
entry:
  %this.addr = alloca ptr, align 8
  store ptr %this, ptr %this.addr, align 8
  %this1 = load ptr, ptr %this.addr, align 8
  %_M_t = getelementptr inbounds %"class.std::__uniq_ptr_impl", ptr %this1, i32 0, i32 0
  %call = call noundef nonnull align 8 dereferenceable(8) ptr @_ZSt3getILm0EJPN3net22SendAlgorithmInterfaceESt14default_deleteIS1_EEERKNSt13tuple_elementIXT_ESt5tupleIJDpT0_EEE4typeERKS9_(ptr noundef nonnull align 8 dereferenceable(8) %_M_t) #11
  %0 = load ptr, ptr %call, align 8
  ret ptr %0
}

; Function Attrs: mustprogress nounwind uwtable
define linkonce_odr dso_local noundef ptr @_ZNKSt10unique_ptrIN3net22SendAlgorithmInterfaceESt14default_deleteIS1_EE3getEv(ptr noundef nonnull align 8 dereferenceable(8) %this) #1 comdat align 2 {
entry:
  %this.addr = alloca ptr, align 8
  store ptr %this, ptr %this.addr, align 8
  %this1 = load ptr, ptr %this.addr, align 8
  %_M_t = getelementptr inbounds %"class.std::unique_ptr", ptr %this1, i32 0, i32 0
  %call = call noundef ptr @_ZNKSt15__uniq_ptr_implIN3net22SendAlgorithmInterfaceESt14default_deleteIS1_EE6_M_ptrEv(ptr noundef nonnull align 8 dereferenceable(8) %_M_t) #11
  ret ptr %call
}

; Function Attrs: mustprogress nounwind uwtable
define linkonce_odr dso_local noundef ptr @_ZNKSt10unique_ptrIN3net22SendAlgorithmInterfaceESt14default_deleteIS1_EEptEv(ptr noundef nonnull align 8 dereferenceable(8) %this) #1 comdat align 2 {
entry:
  %this.addr = alloca ptr, align 8
  store ptr %this, ptr %this.addr, align 8
  %this1 = load ptr, ptr %this.addr, align 8
  %call = call noundef ptr @_ZNKSt10unique_ptrIN3net22SendAlgorithmInterfaceESt14default_deleteIS1_EE3getEv(ptr noundef nonnull align 8 dereferenceable(8) %this1) #11
  ret ptr %call
}

; Function Attrs: mustprogress uwtable
define dso_local i64 @_ZNK3net21QuicSentPacketManager17BandwidthEstimateEv(ptr noundef nonnull align 8 dereferenceable(776) %this) unnamed_addr #0 align 2 {
entry:
  %retval = alloca %"class.net::QuicBandwidth", align 8
  %this.addr = alloca ptr, align 8
  store ptr %this, ptr %this.addr, align 8
  %this1 = load ptr, ptr %this.addr, align 8
  %send_algorithm_ = getelementptr inbounds %"class.net::QuicSentPacketManager", ptr %this1, i32 0, i32 12
  %call = call noundef ptr @_ZNKSt10unique_ptrIN3net22SendAlgorithmInterfaceESt14default_deleteIS1_EEptEv(ptr noundef nonnull align 8 dereferenceable(8) %send_algorithm_) #11
  %vtable = load ptr, ptr %call, align 8
  %vfn = getelementptr inbounds ptr, ptr %vtable, i64 10
  %0 = load ptr, ptr %vfn, align 8
  %call2 = call i64 %0(ptr noundef nonnull align 8 dereferenceable(8) %call)
  %coerce.dive = getelementptr inbounds %"class.net::QuicBandwidth", ptr %retval, i32 0, i32 0
  store i64 %call2, ptr %coerce.dive, align 8
  %coerce.dive3 = getelementptr inbounds %"class.net::QuicBandwidth", ptr %retval, i32 0, i32 0
  %1 = load i64, ptr %coerce.dive3, align 8
  ret i64 %1
}